; Function Attrs: mustprogress nounwind uwtable
define hidden void @_ZN5osgeo4proj9operation18PROJBasedOperationD2Ev(ptr noundef nonnull align 8 dereferenceable(65) %0, ptr noundef %1) unnamed_addr #0 align 2 personality ptr @__gxx_personality_v0 {
  %3 = load ptr, ptr %1, align 8
  store ptr %3, ptr %0, align 8
  %4 = getelementptr inbounds i8, ptr %1, i64 56
  %5 = load ptr, ptr %4, align 8
  %6 = getelementptr i8, ptr %3, i64 -24
  %7 = load i64, ptr %6, align 8
  %8 = getelementptr inbounds i8, ptr %0, i64 %7
  store ptr %5, ptr %8, align 8
  %9 = getelementptr inbounds i8, ptr %1, i64 64
  %10 = load ptr, ptr %9, align 8
  %11 = load ptr, ptr %0, align 8
  %12 = getelementptr i8, ptr %11, i64 -24
  %13 = load i64, ptr %12, align 8
  %14 = getelementptr i8, ptr %0, i64 %13
  %15 = getelementptr i8, ptr %14, i64 16
  store ptr %10, ptr %15, align 8
  %16 = getelementptr inbounds i8, ptr %1, i64 72
  %17 = load ptr, ptr %16, align 8
  %18 = load ptr, ptr %0, align 8
  %19 = getelementptr i8, ptr %18, i64 -24
  %20 = load i64, ptr %19, align 8
  %21 = getelementptr i8, ptr %0, i64 %20
  %22 = getelementptr i8, ptr %21, i64 24
  store ptr %17, ptr %22, align 8
  %23 = getelementptr inbounds i8, ptr %1, i64 80
  %24 = load ptr, ptr %23, align 8
  %25 = load ptr, ptr %0, align 8
  %26 = getelementptr i8, ptr %25, i64 -24
  %27 = load i64, ptr %26, align 8
  %28 = getelementptr i8, ptr %0, i64 %27
  %29 = getelementptr i8, ptr %28, i64 48
  store ptr %24, ptr %29, align 8
  %30 = getelementptr inbounds i8, ptr %1, i64 88
  %31 = load ptr, ptr %30, align 8
  %32 = load ptr, ptr %0, align 8
  %33 = getelementptr i8, ptr %32, i64 -24
  %34 = load i64, ptr %33, align 8
  %35 = getelementptr i8, ptr %0, i64 %34
  %36 = getelementptr i8, ptr %35, i64 56
  store ptr %31, ptr %36, align 8
  %37 = getelementptr inbounds i8, ptr %0, i64 56
  %38 = load ptr, ptr %37, align 8
  %.not.i.i.i = icmp eq ptr %38, null
  br i1 %.not.i.i.i, label %_ZNSt10shared_ptrIN5osgeo4proj2io21IPROJStringExportableEED2Ev.exit, label %39

39:                                               ; preds = %2
  %40 = getelementptr inbounds i8, ptr %38, i64 8
  %41 = load atomic i64, ptr %40 acquire, align 8
  %42 = icmp eq i64 %41, 4294967297
  %43 = trunc i64 %41 to i32
  br i1 %42, label %44, label %49

44:                                               ; preds = %39
  store i32 0, ptr %40, align 8
  %45 = getelementptr inbounds i8, ptr %38, i64 12
  store i32 0, ptr %45, align 4
  %46 = load ptr, ptr %38, align 8
  %47 = getelementptr inbounds i8, ptr %46, i64 16
  %48 = load ptr, ptr %47, align 8
  tail call void %48(ptr noundef nonnull align 8 dereferenceable(16) %38) #14
  br label %_ZNSt16_Sp_counted_baseILN9__gnu_cxx12_Lock_policyE2EE24_M_release_last_use_coldEv.exit.sink.split.i.i.i.i

49:                                               ; preds = %39
  %50 = load i8, ptr @__libc_single_threaded, align 1
  %.not.i.i.i.i = icmp eq i8 %50, 0
  br i1 %.not.i.i.i.i, label %53, label %51

51:                                               ; preds = %49
  %52 = add nsw i32 %43, -1
  store i32 %52, ptr %40, align 4
  br label %55

53:                                               ; preds = %49
  %54 = atomicrmw volatile add ptr %40, i32 -1 acq_rel, align 4
  br label %55

55:                                               ; preds = %53, %51
  %.0.i.i.i.i = phi i32 [ %43, %51 ], [ %54, %53 ]
  %56 = icmp eq i32 %.0.i.i.i.i, 1
  br i1 %56, label %57, label %_ZNSt10shared_ptrIN5osgeo4proj2io21IPROJStringExportableEED2Ev.exit

57:                                               ; preds = %55
  %58 = load ptr, ptr %38, align 8
  %59 = getelementptr inbounds i8, ptr %58, i64 16
  %60 = load ptr, ptr %59, align 8
  tail call void %60(ptr noundef nonnull align 8 dereferenceable(16) %38) #14
  %61 = getelementptr inbounds i8, ptr %38, i64 12
  %62 = load i8, ptr @__libc_single_threaded, align 1
  %.not.i.i.i.i.i.i = icmp eq i8 %62, 0
  br i1 %.not.i.i.i.i.i.i, label %66, label %63

63:                                               ; preds = %57
  %64 = load i32, ptr %61, align 4
  %65 = add nsw i32 %64, -1
  store i32 %65, ptr %61, align 4
  br label %68

66:                                               ; preds = %57
  %67 = atomicrmw volatile add ptr %61, i32 -1 acq_rel, align 4
  br label %68

68:                                               ; preds = %66, %63
  %.0.i.i.i.i.i.i = phi i32 [ %64, %63 ], [ %67, %66 ]
  %69 = icmp eq i32 %.0.i.i.i.i.i.i, 1
  br i1 %69, label %_ZNSt16_Sp_counted_baseILN9__gnu_cxx12_Lock_policyE2EE24_M_release_last_use_coldEv.exit.sink.split.i.i.i.i, label %_ZNSt10shared_ptrIN5osgeo4proj2io21IPROJStringExportableEED2Ev.exit

_ZNSt16_Sp_counted_baseILN9__gnu_cxx12_Lock_policyE2EE24_M_release_last_use_coldEv.exit.sink.split.i.i.i.i: ; preds = %68, %44
  %70 = load ptr, ptr %38, align 8
  %71 = getelementptr inbounds i8, ptr %70, i64 24
  %72 = load ptr, ptr %71, align 8
  tail call void %72(ptr noundef nonnull align 8 dereferenceable(16) %38) #14
  br label %_ZNSt10shared_ptrIN5osgeo4proj2io21IPROJStringExportableEED2Ev.exit

_ZNSt10shared_ptrIN5osgeo4proj2io21IPROJStringExportableEED2Ev.exit: ; preds = %2, %55, %68, %_ZNSt16_Sp_counted_baseILN9__gnu_cxx12_Lock_policyE2EE24_M_release_last_use_coldEv.exit.sink.split.i.i.i.i
  %73 = getelementptr inbounds i8, ptr %0, i64 16
  tail call void @_ZNSt7__cxx1112basic_stringIcSt11char_traitsIcESaIcEED1Ev(ptr noundef nonnull align 8 dereferenceable(32) %73) #14
  %74 = getelementptr inbounds i8, ptr %1, i64 8
  tail call void @_ZN5osgeo4proj9operation15SingleOperationD2Ev(ptr noundef nonnull align 8 dereferenceable(16) %0, ptr noundef nonnull %74) #14
  ret void
}